target datalayout = "e-m:e-p270:32:32-p271:32:32-p272:64:64-i64:64-i128:128-f80:128-n8:16:32:64-S128"
target triple = "x86_64-pc-linux-gnu"

%struct.RTMPContext = type { ptr, ptr, [2 x ptr], [2 x i32], i32, i32, i32, ptr, i32, ptr, ptr, i32, i32, ptr, i32, i32, i32, %struct.RTMPPacket, i32, i64, i64, i32, i32, i32, i32, i32, [11 x i8], i32, i32, ptr, ptr, ptr, i32, i32, ptr, ptr, [42 x i8], ptr, ptr, i32, i32, i32, i32, ptr, i32, i32, i32, i32, i32, double, i32, ptr, [50 x i8], [50 x i8], [500 x i8], i32, i32 }
%struct.RTMPPacket = type { i32, i32, i32, i32, i32, ptr, i32, i32, i32 }

@.str.126 = private unnamed_addr constant [8 x i8] c"publish\00", align 1
@.str.155 = private unnamed_addr constant [5 x i8] c"%08x\00", align 1
@.str.158 = private unnamed_addr constant [5 x i8] c"live\00", align 1
@.str.159 = private unnamed_addr constant [5 x i8] c"auth\00", align 1
@.str.160 = private unnamed_addr constant [9 x i8] c"00000001\00", align 1
@.str.161 = private unnamed_addr constant [2 x i8] c":\00", align 1
@.str.162 = private unnamed_addr constant [3 x i8] c":/\00", align 1
@.str.163 = private unnamed_addr constant [11 x i8] c"/_definst_\00", align 1
@.str.164 = private unnamed_addr constant [57 x i8] c"?authmod=%s&user=%s&nonce=%s&cnonce=%s&nc=%s&response=%s\00", align 1
@.str.165 = private unnamed_addr constant [5 x i8] c"llnw\00", align 1

; Function Attrs: nounwind uwtable
define internal i32 @do_llnw_auth(ptr noundef %0, ptr noundef %1, ptr noundef %2) #0 {
  %4 = alloca i32, align 4
  %5 = alloca ptr, align 8
  %6 = alloca ptr, align 8
  %7 = alloca ptr, align 8
  %8 = alloca [16 x i8], align 16
  %9 = alloca [33 x i8], align 16
  %10 = alloca [33 x i8], align 16
  %11 = alloca ptr, align 8
  %12 = alloca ptr, align 8
  %13 = alloca ptr, align 8
  %14 = alloca ptr, align 8
  %15 = alloca [10 x i8], align 1
  %16 = alloca ptr, align 8
  %17 = alloca i32, align 4
  store ptr %0, ptr %5, align 8, !tbaa !22
  store ptr %1, ptr %6, align 8, !tbaa !9
  store ptr %2, ptr %7, align 8, !tbaa !9
  call void @llvm.lifetime.start.p0(i64 16, ptr %8) #12
  call void @llvm.lifetime.start.p0(i64 33, ptr %9) #12
  call void @llvm.lifetime.start.p0(i64 33, ptr %10) #12
  call void @llvm.lifetime.start.p0(i64 8, ptr %11) #12
  store ptr @.str.158, ptr %11, align 8, !tbaa !9
  call void @llvm.lifetime.start.p0(i64 8, ptr %12) #12
  store ptr @.str.126, ptr %12, align 8, !tbaa !9
  call void @llvm.lifetime.start.p0(i64 8, ptr %13) #12
  store ptr @.str.159, ptr %13, align 8, !tbaa !9
  call void @llvm.lifetime.start.p0(i64 8, ptr %14) #12
  store ptr @.str.160, ptr %14, align 8, !tbaa !9
  call void @llvm.lifetime.start.p0(i64 10, ptr %15) #12
  call void @llvm.lifetime.start.p0(i64 8, ptr %16) #12
  %18 = call ptr @av_md5_alloc()
  store ptr %18, ptr %16, align 8, !tbaa !144
  %19 = load ptr, ptr %16, align 8, !tbaa !144
  %20 = icmp ne ptr %19, null
  br i1 %20, label %22, label %21

21:                                               ; preds = %3
  store i32 -12, ptr %4, align 4
  store i32 1, ptr %17, align 4
  br label %126

22:                                               ; preds = %3
  %23 = getelementptr inbounds [10 x i8], ptr %15, i64 0, i64 0
  %24 = call i32 @av_get_random_seed()
  %25 = call i32 (ptr, i64, ptr, ...) @snprintf(ptr noundef %23, i64 noundef 10, ptr noundef @.str.155, i32 noundef %24) #12
  %26 = load ptr, ptr %16, align 8, !tbaa !144
  call void @av_md5_init(ptr noundef %26)
  %27 = load ptr, ptr %16, align 8, !tbaa !144
  %28 = load ptr, ptr %6, align 8, !tbaa !9
  %29 = load ptr, ptr %6, align 8, !tbaa !9
  %30 = call i64 @strlen(ptr noundef %29) #13
  call void @av_md5_update(ptr noundef %27, ptr noundef %28, i64 noundef %30)
  %31 = load ptr, ptr %16, align 8, !tbaa !144
  call void @av_md5_update(ptr noundef %31, ptr noundef @.str.161, i64 noundef 1)
  %32 = load ptr, ptr %16, align 8, !tbaa !144
  %33 = load ptr, ptr %11, align 8, !tbaa !9
  %34 = load ptr, ptr %11, align 8, !tbaa !9
  %35 = call i64 @strlen(ptr noundef %34) #13
  call void @av_md5_update(ptr noundef %32, ptr noundef %33, i64 noundef %35)
  %36 = load ptr, ptr %16, align 8, !tbaa !144
  call void @av_md5_update(ptr noundef %36, ptr noundef @.str.161, i64 noundef 1)
  %37 = load ptr, ptr %16, align 8, !tbaa !144
  %38 = load ptr, ptr %5, align 8, !tbaa !22
  %39 = getelementptr inbounds nuw %struct.RTMPContext, ptr %38, i32 0, i32 53
  %40 = getelementptr inbounds [50 x i8], ptr %39, i64 0, i64 0
  %41 = load ptr, ptr %5, align 8, !tbaa !22
  %42 = getelementptr inbounds nuw %struct.RTMPContext, ptr %41, i32 0, i32 53
  %43 = getelementptr inbounds [50 x i8], ptr %42, i64 0, i64 0
  %44 = call i64 @strlen(ptr noundef %43) #13
  call void @av_md5_update(ptr noundef %37, ptr noundef %40, i64 noundef %44)
  %45 = load ptr, ptr %16, align 8, !tbaa !144
  %46 = getelementptr inbounds [16 x i8], ptr %8, i64 0, i64 0
  call void @av_md5_final(ptr noundef %45, ptr noundef %46)
  %47 = getelementptr inbounds [33 x i8], ptr %9, i64 0, i64 0
  %48 = getelementptr inbounds [16 x i8], ptr %8, i64 0, i64 0
  %49 = call ptr @ff_data_to_hex(ptr noundef %47, ptr noundef %48, i32 noundef 16, i32 noundef 1)
  %50 = load ptr, ptr %16, align 8, !tbaa !144
  call void @av_md5_init(ptr noundef %50)
  %51 = load ptr, ptr %16, align 8, !tbaa !144
  %52 = load ptr, ptr %12, align 8, !tbaa !9
  %53 = load ptr, ptr %12, align 8, !tbaa !9
  %54 = call i64 @strlen(ptr noundef %53) #13
  call void @av_md5_update(ptr noundef %51, ptr noundef %52, i64 noundef %54)
  %55 = load ptr, ptr %16, align 8, !tbaa !144
  call void @av_md5_update(ptr noundef %55, ptr noundef @.str.162, i64 noundef 2)
  %56 = load ptr, ptr %16, align 8, !tbaa !144
  %57 = load ptr, ptr %5, align 8, !tbaa !22
  %58 = getelementptr inbounds nuw %struct.RTMPContext, ptr %57, i32 0, i32 9
  %59 = load ptr, ptr %58, align 8, !tbaa !41
  %60 = load ptr, ptr %5, align 8, !tbaa !22
  %61 = getelementptr inbounds nuw %struct.RTMPContext, ptr %60, i32 0, i32 9
  %62 = load ptr, ptr %61, align 8, !tbaa !41
  %63 = call i64 @strlen(ptr noundef %62) #13
  call void @av_md5_update(ptr noundef %56, ptr noundef %59, i64 noundef %63)
  %64 = load ptr, ptr %5, align 8, !tbaa !22
  %65 = getelementptr inbounds nuw %struct.RTMPContext, ptr %64, i32 0, i32 9
  %66 = load ptr, ptr %65, align 8, !tbaa !41
  %67 = call ptr @strchr(ptr noundef %66, i32 noundef 47) #13
  %68 = icmp ne ptr %67, null
  br i1 %68, label %71, label %69

69:                                               ; preds = %22
  %70 = load ptr, ptr %16, align 8, !tbaa !144
  call void @av_md5_update(ptr noundef %70, ptr noundef @.str.163, i64 noundef 10)
  br label %71

71:                                               ; preds = %69, %22
  %72 = load ptr, ptr %16, align 8, !tbaa !144
  %73 = getelementptr inbounds [16 x i8], ptr %8, i64 0, i64 0
  call void @av_md5_final(ptr noundef %72, ptr noundef %73)
  %74 = getelementptr inbounds [33 x i8], ptr %10, i64 0, i64 0
  %75 = getelementptr inbounds [16 x i8], ptr %8, i64 0, i64 0
  %76 = call ptr @ff_data_to_hex(ptr noundef %74, ptr noundef %75, i32 noundef 16, i32 noundef 1)
  %77 = load ptr, ptr %16, align 8, !tbaa !144
  call void @av_md5_init(ptr noundef %77)
  %78 = load ptr, ptr %16, align 8, !tbaa !144
  %79 = getelementptr inbounds [33 x i8], ptr %9, i64 0, i64 0
  %80 = getelementptr inbounds [33 x i8], ptr %9, i64 0, i64 0
  %81 = call i64 @strlen(ptr noundef %80) #13
  call void @av_md5_update(ptr noundef %78, ptr noundef %79, i64 noundef %81)
  %82 = load ptr, ptr %16, align 8, !tbaa !144
  call void @av_md5_update(ptr noundef %82, ptr noundef @.str.161, i64 noundef 1)
  %83 = load ptr, ptr %7, align 8, !tbaa !9
  %84 = icmp ne ptr %83, null
  br i1 %84, label %85, label %90

85:                                               ; preds = %71
  %86 = load ptr, ptr %16, align 8, !tbaa !144
  %87 = load ptr, ptr %7, align 8, !tbaa !9
  %88 = load ptr, ptr %7, align 8, !tbaa !9
  %89 = call i64 @strlen(ptr noundef %88) #13
  call void @av_md5_update(ptr noundef %86, ptr noundef %87, i64 noundef %89)
  br label %90

90:                                               ; preds = %85, %71
  %91 = load ptr, ptr %16, align 8, !tbaa !144
  call void @av_md5_update(ptr noundef %91, ptr noundef @.str.161, i64 noundef 1)
  %92 = load ptr, ptr %16, align 8, !tbaa !144
  %93 = load ptr, ptr %14, align 8, !tbaa !9
  %94 = load ptr, ptr %14, align 8, !tbaa !9
  %95 = call i64 @strlen(ptr noundef %94) #13
  call void @av_md5_update(ptr noundef %92, ptr noundef %93, i64 noundef %95)
  %96 = load ptr, ptr %16, align 8, !tbaa !144
  call void @av_md5_update(ptr noundef %96, ptr noundef @.str.161, i64 noundef 1)
  %97 = load ptr, ptr %16, align 8, !tbaa !144
  %98 = getelementptr inbounds [10 x i8], ptr %15, i64 0, i64 0
  %99 = getelementptr inbounds [10 x i8], ptr %15, i64 0, i64 0
  %100 = call i64 @strlen(ptr noundef %99) #13
  call void @av_md5_update(ptr noundef %97, ptr noundef %98, i64 noundef %100)
  %101 = load ptr, ptr %16, align 8, !tbaa !144
  call void @av_md5_update(ptr noundef %101, ptr noundef @.str.161, i64 noundef 1)
  %102 = load ptr, ptr %16, align 8, !tbaa !144
  %103 = load ptr, ptr %13, align 8, !tbaa !9
  %104 = load ptr, ptr %13, align 8, !tbaa !9
  %105 = call i64 @strlen(ptr noundef %104) #13
  call void @av_md5_update(ptr noundef %102, ptr noundef %103, i64 noundef %105)
  %106 = load ptr, ptr %16, align 8, !tbaa !144
  call void @av_md5_update(ptr noundef %106, ptr noundef @.str.161, i64 noundef 1)
  %107 = load ptr, ptr %16, align 8, !tbaa !144
  %108 = getelementptr inbounds [33 x i8], ptr %10, i64 0, i64 0
  %109 = getelementptr inbounds [33 x i8], ptr %10, i64 0, i64 0
  %110 = call i64 @strlen(ptr noundef %109) #13
  call void @av_md5_update(ptr noundef %107, ptr noundef %108, i64 noundef %110)
  %111 = load ptr, ptr %16, align 8, !tbaa !144
  %112 = getelementptr inbounds [16 x i8], ptr %8, i64 0, i64 0
  call void @av_md5_final(ptr noundef %111, ptr noundef %112)
  %113 = getelementptr inbounds [33 x i8], ptr %9, i64 0, i64 0
  %114 = getelementptr inbounds [16 x i8], ptr %8, i64 0, i64 0
  %115 = call ptr @ff_data_to_hex(ptr noundef %113, ptr noundef %114, i32 noundef 16, i32 noundef 1)
  %116 = load ptr, ptr %5, align 8, !tbaa !22
  %117 = getelementptr inbounds nuw %struct.RTMPContext, ptr %116, i32 0, i32 54
  %118 = getelementptr inbounds [500 x i8], ptr %117, i64 0, i64 0
  %119 = load ptr, ptr %6, align 8, !tbaa !9
  %120 = load ptr, ptr %7, align 8, !tbaa !9
  %121 = getelementptr inbounds [10 x i8], ptr %15, i64 0, i64 0
  %122 = load ptr, ptr %14, align 8, !tbaa !9
  %123 = getelementptr inbounds [33 x i8], ptr %9, i64 0, i64 0
  %124 = call i32 (ptr, i64, ptr, ...) @snprintf(ptr noundef %118, i64 noundef 500, ptr noundef @.str.164, ptr noundef @.str.165, ptr noundef %119, ptr noundef %120, ptr noundef %121, ptr noundef %122, ptr noundef %123) #12
  %125 = load ptr, ptr %16, align 8, !tbaa !144
  call void @av_free(ptr noundef %125)
  store i32 0, ptr %4, align 4
  store i32 1, ptr %17, align 4
  br label %126

126:                                              ; preds = %90, %21
  call void @llvm.lifetime.end.p0(i64 8, ptr %16) #12
  call void @llvm.lifetime.end.p0(i64 10, ptr %15) #12
  call void @llvm.lifetime.end.p0(i64 8, ptr %14) #12
  call void @llvm.lifetime.end.p0(i64 8, ptr %13) #12
  call void @llvm.lifetime.end.p0(i64 8, ptr %12) #12
  call void @llvm.lifetime.end.p0(i64 8, ptr %11) #12
  call void @llvm.lifetime.end.p0(i64 33, ptr %10) #12
  call void @llvm.lifetime.end.p0(i64 33, ptr %9) #12
  call void @llvm.lifetime.end.p0(i64 16, ptr %8) #12
  %127 = load i32, ptr %4, align 4
  ret i32 %127
}