; Function Attrs: nounwind uwtable
define internal fastcc range(i32 -12, 1) i32 @do_llnw_auth(ptr noundef %0, ptr noundef %1, ptr noundef %2) unnamed_addr #0 {
  %4 = alloca [16 x i8], align 16
  %5 = alloca [33 x i8], align 16
  %6 = alloca [33 x i8], align 16
  %7 = alloca [10 x i8], align 1
  call void @llvm.lifetime.start.p0(i64 16, ptr nonnull %4) #11
  call void @llvm.lifetime.start.p0(i64 33, ptr nonnull %5) #11
  call void @llvm.lifetime.start.p0(i64 33, ptr nonnull %6) #11
  call void @llvm.lifetime.start.p0(i64 10, ptr nonnull %7) #11
  %8 = tail call ptr @av_md5_alloc() #11
  %.not = icmp eq ptr %8, null
  br i1 %.not, label %33, label %9

9:                                                ; preds = %3
  %10 = tail call i32 @av_get_random_seed() #11
  %11 = call i32 (ptr, i64, ptr, ...) @snprintf(ptr noundef nonnull dereferenceable(1) %7, i64 noundef 10, ptr noundef nonnull @.str.155, i32 noundef %10) #11
  tail call void @av_md5_init(ptr noundef nonnull %8) #11
  %12 = tail call i64 @strlen(ptr noundef nonnull dereferenceable(1) %1) #12
  tail call void @av_md5_update(ptr noundef nonnull %8, ptr noundef nonnull %1, i64 noundef %12) #11
  tail call void @av_md5_update(ptr noundef nonnull %8, ptr noundef nonnull @.str.161, i64 noundef 1) #11
  tail call void @av_md5_update(ptr noundef nonnull %8, ptr noundef nonnull @.str.158, i64 noundef 4) #11
  tail call void @av_md5_update(ptr noundef nonnull %8, ptr noundef nonnull @.str.161, i64 noundef 1) #11
  %13 = getelementptr inbounds nuw i8, ptr %0, i64 466
  %14 = tail call i64 @strlen(ptr noundef nonnull dereferenceable(1) %13) #12
  tail call void @av_md5_update(ptr noundef nonnull %8, ptr noundef nonnull %13, i64 noundef %14) #11
  call void @av_md5_final(ptr noundef nonnull %8, ptr noundef nonnull %4) #11
  %15 = call ptr @ff_data_to_hex(ptr noundef nonnull %5, ptr noundef nonnull %4, i32 noundef 16, i32 noundef 1) #11
  call void @av_md5_init(ptr noundef nonnull %8) #11
  call void @av_md5_update(ptr noundef nonnull %8, ptr noundef nonnull @.str.126, i64 noundef 7) #11
  call void @av_md5_update(ptr noundef nonnull %8, ptr noundef nonnull @.str.162, i64 noundef 2) #11
  %16 = getelementptr inbounds nuw i8, ptr %0, i64 72
  %17 = load ptr, ptr %16, align 8, !tbaa !53
  %18 = call i64 @strlen(ptr noundef nonnull dereferenceable(1) %17) #12
  call void @av_md5_update(ptr noundef nonnull %8, ptr noundef nonnull %17, i64 noundef %18) #11
  %19 = load ptr, ptr %16, align 8, !tbaa !53
  %20 = call ptr @strchr(ptr noundef nonnull dereferenceable(1) %19, i32 noundef 47) #12
  %.not52 = icmp eq ptr %20, null
  br i1 %.not52, label %21, label %22

21:                                               ; preds = %9
  call void @av_md5_update(ptr noundef nonnull %8, ptr noundef nonnull @.str.163, i64 noundef 10) #11
  br label %22

22:                                               ; preds = %21, %9
  call void @av_md5_final(ptr noundef nonnull %8, ptr noundef nonnull %4) #11
  %23 = call ptr @ff_data_to_hex(ptr noundef nonnull %6, ptr noundef nonnull %4, i32 noundef 16, i32 noundef 1) #11
  call void @av_md5_init(ptr noundef nonnull %8) #11
  %24 = call i64 @strlen(ptr noundef nonnull dereferenceable(1) %5) #12
  call void @av_md5_update(ptr noundef nonnull %8, ptr noundef nonnull %5, i64 noundef %24) #11
  call void @av_md5_update(ptr noundef nonnull %8, ptr noundef nonnull @.str.161, i64 noundef 1) #11
  %.not53 = icmp eq ptr %2, null
  br i1 %.not53, label %27, label %25

25:                                               ; preds = %22
  %26 = call i64 @strlen(ptr noundef nonnull dereferenceable(1) %2) #12
  call void @av_md5_update(ptr noundef nonnull %8, ptr noundef nonnull %2, i64 noundef %26) #11
  br label %27

27:                                               ; preds = %25, %22
  call void @av_md5_update(ptr noundef nonnull %8, ptr noundef nonnull @.str.161, i64 noundef 1) #11
  call void @av_md5_update(ptr noundef nonnull %8, ptr noundef nonnull @.str.160, i64 noundef 8) #11
  call void @av_md5_update(ptr noundef nonnull %8, ptr noundef nonnull @.str.161, i64 noundef 1) #11
  %28 = call i64 @strlen(ptr noundef nonnull dereferenceable(1) %7) #12
  call void @av_md5_update(ptr noundef nonnull %8, ptr noundef nonnull %7, i64 noundef %28) #11
  call void @av_md5_update(ptr noundef nonnull %8, ptr noundef nonnull @.str.161, i64 noundef 1) #11
  call void @av_md5_update(ptr noundef nonnull %8, ptr noundef nonnull @.str.159, i64 noundef 4) #11
  call void @av_md5_update(ptr noundef nonnull %8, ptr noundef nonnull @.str.161, i64 noundef 1) #11
  %29 = call i64 @strlen(ptr noundef nonnull dereferenceable(1) %6) #12
  call void @av_md5_update(ptr noundef nonnull %8, ptr noundef nonnull %6, i64 noundef %29) #11
  call void @av_md5_final(ptr noundef nonnull %8, ptr noundef nonnull %4) #11
  %30 = call ptr @ff_data_to_hex(ptr noundef nonnull %5, ptr noundef nonnull %4, i32 noundef 16, i32 noundef 1) #11
  %31 = getelementptr inbounds nuw i8, ptr %0, i64 516
  %32 = call i32 (ptr, i64, ptr, ...) @snprintf(ptr noundef nonnull dereferenceable(1) %31, i64 noundef 500, ptr noundef nonnull @.str.164, ptr noundef nonnull @.str.165, ptr noundef nonnull %1, ptr noundef %2, ptr noundef nonnull %7, ptr noundef nonnull @.str.160, ptr noundef nonnull %5) #11
  call void @av_free(ptr noundef nonnull %8) #11
  br label %33

33:                                               ; preds = %3, %27
  %.0 = phi i32 [ 0, %27 ], [ -12, %3 ]
  call void @llvm.lifetime.end.p0(i64 10, ptr nonnull %7) #11
  call void @llvm.lifetime.end.p0(i64 33, ptr nonnull %6) #11
  call void @llvm.lifetime.end.p0(i64 33, ptr nonnull %5) #11
  call void @llvm.lifetime.end.p0(i64 16, ptr nonnull %4) #11
  ret i32 %.0
}